; Function Attrs: nounwind uwtable
define hidden noalias ptr @mi_malloc_aligned(i64 noundef %0, i64 noundef %1) local_unnamed_addr #0 {
  %3 = tail call align 8 ptr @llvm.threadlocal.address.p0(ptr align 8 @_mi_heap_default)
  %4 = load ptr, ptr %3, align 8, !tbaa !18
  %5 = tail call range(i64 0, 65) i64 @llvm.ctpop.i64(i64 range(i64 1, 0) %1)
  %or.cond.not.i.i.i = icmp eq i64 %5, 1
  br i1 %or.cond.not.i.i.i, label %6, label %mi_heap_malloc_aligned.exit, !prof !3

6:                                                ; preds = %2
  %7 = icmp ult i64 %0, 1025
  %8 = icmp ule i64 %1, %0
  %9 = and i1 %7, %8
  br i1 %9, label %10, label %.thread.i.i.i, !prof !4

10:                                               ; preds = %6
  %11 = add nuw nsw i64 %0, 7
  %12 = lshr i64 %11, 3
  %13 = getelementptr inbounds nuw i8, ptr %4, i64 232
  %14 = getelementptr inbounds nuw [129 x ptr], ptr %13, i64 0, i64 %12
  %15 = load ptr, ptr %14, align 8, !tbaa !5
  %16 = getelementptr inbounds nuw i8, ptr %15, i64 16
  %17 = load ptr, ptr %16, align 8, !tbaa !10
  %.not.i.i.i = icmp eq ptr %17, null
  br i1 %.not.i.i.i, label %.thread.i.i.i, label %18, !prof !17

18:                                               ; preds = %10
  %19 = add i64 %1, -1
  %20 = ptrtoint ptr %17 to i64
  %21 = and i64 %19, %20
  %.not36.i.i.i = icmp eq i64 %21, 0
  br i1 %.not36.i.i.i, label %22, label %.thread.i.i.i, !prof !4

22:                                               ; preds = %18
  %23 = tail call ptr @_mi_page_malloc(ptr noundef nonnull %4, ptr noundef nonnull %15, i64 noundef %0) #8
  br label %mi_heap_malloc_aligned.exit

.thread.i.i.i:                                    ; preds = %18, %10, %6
  %24 = tail call fastcc ptr @mi_heap_malloc_zero_aligned_at_generic(ptr noundef %4, i64 noundef %0, i64 noundef %1, i64 noundef 0, i1 noundef zeroext false) #9
  br label %mi_heap_malloc_aligned.exit

mi_heap_malloc_aligned.exit:                      ; preds = %2, %22, %.thread.i.i.i
  %.030.i.i.i = phi ptr [ %24, %.thread.i.i.i ], [ null, %2 ], [ %23, %22 ]
  ret ptr %.030.i.i.i
}